; Function Attrs: mustprogress uwtable
define hidden noundef zeroext i1 @_ZN12contains_appclEjPKP4expr(ptr noundef nonnull align 8 dereferenceable(176) %this, i32 noundef %size, ptr nocapture noundef readonly %es) local_unnamed_addr #3 align 2 {
entry:
  %cmp3.not = icmp eq i32 %size, 0
  br i1 %cmp3.not, label %return, label %for.body.lr.ph

for.body.lr.ph:                                   ; preds = %entry
  %m_check.i = getelementptr inbounds i8, ptr %this, i64 32
  %m_visited.i.i = getelementptr inbounds i8, ptr %this, i64 96
  %m_nodes.i.i.i = getelementptr inbounds i8, ptr %this, i64 160
  %m_pred_holds.i.i = getelementptr inbounds i8, ptr %this, i64 40
  %0 = zext i32 %size to i64
  br label %for.body

for.cond:                                         ; preds = %_ZN12contains_appclEP4expr.exit
  %indvars.iv.next = add nuw nsw i64 %indvars.iv, 1
  %cmp = icmp ult i64 %indvars.iv.next, %0
  %exitcond.not = icmp eq i64 %indvars.iv.next, %0
  br i1 %exitcond.not, label %return, label %for.body, !llvm.loop !7

for.body:                                         ; preds = %for.body.lr.ph, %for.cond
  %indvars.iv = phi i64 [ 0, %for.body.lr.ph ], [ %indvars.iv.next, %for.cond ]
  %cmp5 = phi i1 [ true, %for.body.lr.ph ], [ %cmp, %for.cond ]
  %arrayidx = getelementptr inbounds ptr, ptr %es, i64 %indvars.iv
  %1 = load ptr, ptr %arrayidx, align 8
  %call.i.i = tail call noundef zeroext i1 @_ZNK8ast_mark9is_markedEP3ast(ptr noundef nonnull align 8 dereferenceable(56) %m_visited.i.i, ptr noundef %1)
  br i1 %call.i.i, label %_ZN12contains_appclEP4expr.exit, label %if.then.i.i

if.then.i.i:                                      ; preds = %for.body
  %tobool.not.i.i.i.i.i.i = icmp eq ptr %1, null
  br i1 %tobool.not.i.i.i.i.i.i, label %_ZN15ref_vector_coreI4expr19ref_manager_wrapperIS0_11ast_managerEE7inc_refEPS0_.exit.i.i.i, label %if.then.i.i.i.i.i.i

if.then.i.i.i.i.i.i:                              ; preds = %if.then.i.i
  %m_ref_count.i.i.i.i.i.i.i = getelementptr inbounds i8, ptr %1, i64 8
  %2 = load i32, ptr %m_ref_count.i.i.i.i.i.i.i, align 4
  %inc.i.i.i.i.i.i.i = add i32 %2, 1
  store i32 %inc.i.i.i.i.i.i.i, ptr %m_ref_count.i.i.i.i.i.i.i, align 4
  br label %_ZN15ref_vector_coreI4expr19ref_manager_wrapperIS0_11ast_managerEE7inc_refEPS0_.exit.i.i.i

_ZN15ref_vector_coreI4expr19ref_manager_wrapperIS0_11ast_managerEE7inc_refEPS0_.exit.i.i.i: ; preds = %if.then.i.i.i.i.i.i, %if.then.i.i
  %3 = load ptr, ptr %m_nodes.i.i.i, align 8
  %cmp.i.i.i.i = icmp eq ptr %3, null
  br i1 %cmp.i.i.i.i, label %if.then.i.i.i.i, label %lor.lhs.false.i.i.i.i

lor.lhs.false.i.i.i.i:                            ; preds = %_ZN15ref_vector_coreI4expr19ref_manager_wrapperIS0_11ast_managerEE7inc_refEPS0_.exit.i.i.i
  %arrayidx.i.i.i.i = getelementptr inbounds i8, ptr %3, i64 -4
  %4 = load i32, ptr %arrayidx.i.i.i.i, align 4
  %arrayidx4.i.i.i.i = getelementptr inbounds i8, ptr %3, i64 -8
  %5 = load i32, ptr %arrayidx4.i.i.i.i, align 4
  %cmp5.i.i.i.i = icmp eq i32 %4, %5
  br i1 %cmp5.i.i.i.i, label %if.then.i.i.i.i, label %_ZN15ref_vector_coreI4expr19ref_manager_wrapperIS0_11ast_managerEE9push_backEPS0_.exit.i.i

if.then.i.i.i.i:                                  ; preds = %lor.lhs.false.i.i.i.i, %_ZN15ref_vector_coreI4expr19ref_manager_wrapperIS0_11ast_managerEE7inc_refEPS0_.exit.i.i.i
  tail call void @_ZN6vectorIP4exprLb0EjE13expand_vectorEv(ptr noundef nonnull align 8 dereferenceable(8) %m_nodes.i.i.i)
  %.pre.i.i.i.i = load ptr, ptr %m_nodes.i.i.i, align 8
  %arrayidx8.phi.trans.insert.i.i.i.i = getelementptr inbounds i8, ptr %.pre.i.i.i.i, i64 -4
  %.pre1.i.i.i.i = load i32, ptr %arrayidx8.phi.trans.insert.i.i.i.i, align 4
  br label %_ZN15ref_vector_coreI4expr19ref_manager_wrapperIS0_11ast_managerEE9push_backEPS0_.exit.i.i

_ZN15ref_vector_coreI4expr19ref_manager_wrapperIS0_11ast_managerEE9push_backEPS0_.exit.i.i: ; preds = %if.then.i.i.i.i, %lor.lhs.false.i.i.i.i
  %6 = phi i32 [ %.pre1.i.i.i.i, %if.then.i.i.i.i ], [ %4, %lor.lhs.false.i.i.i.i ]
  %7 = phi ptr [ %.pre.i.i.i.i, %if.then.i.i.i.i ], [ %3, %lor.lhs.false.i.i.i.i ]
  %idx.ext.i.i.i.i = zext i32 %6 to i64
  %add.ptr.i.i.i.i = getelementptr inbounds ptr, ptr %7, i64 %idx.ext.i.i.i.i
  store ptr %1, ptr %add.ptr.i.i.i.i, align 8
  %8 = load ptr, ptr %m_nodes.i.i.i, align 8
  %arrayidx10.i.i.i.i = getelementptr inbounds i8, ptr %8, i64 -4
  %9 = load i32, ptr %arrayidx10.i.i.i.i, align 4
  %inc.i.i.i.i = add i32 %9, 1
  store i32 %inc.i.i.i.i, ptr %arrayidx10.i.i.i.i, align 4
  tail call void @_ZN10check_pred5visitEP4expr(ptr noundef nonnull align 8 dereferenceable(137) %m_check.i, ptr noundef %1)
  br label %_ZN12contains_appclEP4expr.exit

_ZN12contains_appclEP4expr.exit:                  ; preds = %for.body, %_ZN15ref_vector_coreI4expr19ref_manager_wrapperIS0_11ast_managerEE9push_backEPS0_.exit.i.i
  %call3.i.i = tail call noundef zeroext i1 @_ZNK8ast_mark9is_markedEP3ast(ptr noundef nonnull align 8 dereferenceable(56) %m_pred_holds.i.i, ptr noundef %1)
  br i1 %call3.i.i, label %return, label %for.cond

return:                                           ; preds = %_ZN12contains_appclEP4expr.exit, %for.cond, %entry
  %cmp.lcssa = phi i1 [ false, %entry ], [ %cmp, %for.cond ], [ %cmp5, %_ZN12contains_appclEP4expr.exit ]
  ret i1 %cmp.lcssa
}